Certificate:
    Data:
        Version: 3 (0x2)
        Serial Number: 1 (0x1)
    Signature Algorithm: sha256WithRSAEncryption
        Issuer: C=JP, ST=Tokyo, O=MyOrg, OU=dev, CN=My CA
        Validity
            Not Before: Jun 23 13:49:40 2020 GMT
            Not After : Jun 23 13:49:40 2021 GMT
        Subject: C=JP, ST=Tokyo, O=MyOrg, OU=dev, CN=My Servers
        Subject Public Key Info:
            Public Key Algorithm: rsaEncryption
                Public-Key: (2048 bit)
                Modulus:
                    00:b2:a9:e8:db:95:f7:b9:2e:44:f7:f9:85:c5:f4:
                    56:55:46:54:66:55:a5:92:a6:19:ea:33:93:5c:1d:
                    c4:7d:55:08:e2:93:b9:f7:4d:89:89:f0:73:bc:81:
                    82:fb:4b:55:bb:8b:93:7c:f2:aa:96:74:05:a5:11:
                    9e:7d:4a:4c:fb:7b:00:43:ec:b0:4d:0b:1a:4b:8b:
                    96:11:3e:1d:a7:1a:92:e9:c0:69:1e:4b:8f:c0:86:
                    50:08:cb:12:fa:29:47:09:4f:ac:b0:6c:f4:76:e5:
                    68:4d:63:f7:6e:48:cb:65:8e:06:43:4f:68:92:73:
                    b4:f1:a7:95:58:58:c7:ed:90:54:47:b4:68:04:b6:
                    0b:e8:1f:7f:60:da:0e:00:c2:3e:07:d2:34:13:21:
                    0f:2c:24:18:6e:86:e8:1b:22:84:54:b4:e8:7c:d8:
                    6b:be:16:8f:7f:39:4e:ae:11:45:2f:b4:4c:61:f2:
                    fa:6f:56:35:ef:b3:85:a3:60:52:14:f7:bd:9b:59:
                    b1:0a:b2:7c:38:29:19:99:af:6c:aa:95:81:3f:4d:
                    a1:49:7f:39:0e:43:2f:ca:da:0e:fd:12:40:89:0e:
                    3b:6f:f7:66:f2:fb:35:f6:e8:81:75:24:06:3e:b1:
                    96:69:64:0c:52:8f:56:2a:5d:2b:87:c5:b2:73:e0:
                    5b:1b
                Exponent: 65537 (0x10001)
        X509v3 extensions:
            X509v3 Key Usage: critical
                Digital Signature, Key Encipherment
            X509v3 Extended Key Usage: 
                TLS Web Server Authentication
            X509v3 Authority Key Identifier: 
                keyid:C0:86:4D:B2:A2:87:B1:B6:73:6A:2C:A4:3B:D0:8F:1D:23:4A:F5:05

            X509v3 Subject Alternative Name: 
                DNS:localhost, IP Address:127.0.0.1, IP Address:192.168.11.5
            X509v3 Basic Constraints: 
                CA:FALSE
    Signature Algorithm: sha256WithRSAEncryption
         2f:37:1c:08:d8:2e:b4:07:c5:c6:da:48:c9:af:dc:17:8d:19:
         54:27:02:b5:61:97:42:21:b7:16:f1:f8:14:ac:d8:f9:d2:cf:
         34:a1:e9:a1:9e:af:8e:1a:37:c6:af:64:22:48:20:78:44:96:
         e2:2e:7d:b5:b7:c1:15:7d:5c:6c:4e:97:a6:d2:6c:0d:80:16:
         51:c1:fa:05:b9:45:ec:a2:34:91:cc:2e:dd:58:aa:6b:be:f3:
         d8:f9:9f:98:7b:80:e8:80:9c:7a:f8:c6:64:72:f4:70:c9:14:
         64:12:0d:80:eb:a9:54:b0:29:38:ac:f7:2a:17:97:c5:87:db:
         34:78:41:07:2f:38:dc:fa:9c:8a:32:2f:40:51:d0:f6:64:82:
         bc:ae:17:de:16:65:7f:63:3c:ec:ec:ed:af:20:a9:9e:a0:25:
         6f:0c:28:8c:65:9a:a1:23:d2:e1:a1:2a:37:f4:d6:c4:a6:7d:
         c9:c2:5b:cf:fc:c5:d4:37:00:52:c7:3c:f0:83:e1:2f:70:3a:
         f1:f9:80:56:c8:59:f6:c7:8a:e0:1c:be:0e:e3:f8:87:45:3f:
         f4:64:8f:34:cc:58:fb:73:31:d2:28:8c:ce:10:7d:c3:d4:7a:
         8c:51:22:1d:8b:88:da:ea:a4:ff:78:ce:b1:c5:ae:6e:cb:59:
         46:e3:3f:92
-----BEGIN CERTIFICATE-----
MIIDizCCAnOgAwIBAgIBATANBgkqhkiG9w0BAQsFADBLMQswCQYDVQQGEwJKUDEO
MAwGA1UECAwFVG9reW8xDjAMBgNVBAoMBU15T3JnMQwwCgYDVQQLDANkZXYxDjAM
BgNVBAMMBU15IENBMB4XDTIwMDYyMzEzNDk0MFoXDTIxMDYyMzEzNDk0MFowUDEL
MAkGA1UEBhMCSlAxDjAMBgNVBAgMBVRva3lvMQ4wDAYDVQQKDAVNeU9yZzEMMAoG
A1UECwwDZGV2MRMwEQYDVQQDDApNeSBTZXJ2ZXJzMIIBIjANBgkqhkiG9w0BAQEF
AAOCAQ8AMIIBCgKCAQEAsqno25X3uS5E9/mFxfRWVUZUZlWlkqYZ6jOTXB3EfVUI
4pO5902JifBzvIGC+0tVu4uTfPKqlnQFpRGefUpM+3sAQ+ywTQsaS4uWET4dpxqS
6cBpHkuPwIZQCMsS+ilHCU+ssGz0duVoTWP3bkjLZY4GQ09oknO08aeVWFjH7ZBU
R7RoBLYL6B9/YNoOAMI+B9I0EyEPLCQYboboGyKEVLTofNhrvhaPfzlOrhFFL7RM
YfL6b1Y177OFo2BSFPe9m1mxCrJ8OCkZma9sqpWBP02hSX85DkMvytoO/RJAiQ47
b/dm8vs19uiBdSQGPrGWaWQMUo9WKl0rh8Wyc+BbGwIDAQABo3UwczAOBgNVHQ8B
Af8EBAMCBaAwEwYDVR0lBAwwCgYIKwYBBQUHAwEwHwYDVR0jBBgwFoAUwIZNsqKH
sbZzaiykO9CPHSNK9QUwIAYDVR0RBBkwF4IJbG9jYWxob3N0hwR/AAABhwTAqAsF
MAkGA1UdEwQCMAAwDQYJKoZIhvcNAQELBQADggEBAC83HAjYLrQHxcbaSMmv3BeN
GVQnArVhl0Ihtxbx+BSs2PnSzzSh6aGer44aN8avZCJIIHhEluIufbW3wRV9XGxO
l6bSbA2AFlHB+gW5ReyiNJHMLt1Yqmu+89j5n5h7gOiAnHr4xmRy9HDJFGQSDYDr
qVSwKTis9yoXl8WH2zR4QQcvONz6nIoyL0BR0PZkgryuF94WZX9jPOzs7a8gqZ6g
JW8MKIxlmqEj0uGhKjf01sSmfcnCW8/8xdQ3AFLHPPCD4S9wOvH5gFbIWfbHiuAc
vg7j+IdFP/RkjzTMWPtzMdIojM4QfcPUeoxRIh2LiNrqpP94zrHFrm7LWUbjP5I=
-----END CERTIFICATE-----
